; Function Attrs: nounwind uwtable
define range(i32 -1, 1) i32 @H5Pget_shared_mesg_phase_change(i64 noundef %0, ptr noundef %1, ptr noundef %2) local_unnamed_addr #0 {
  %4 = load i8, ptr @H5_libinit_g, align 1
  %5 = trunc i8 %4 to i1
  %6 = load i8, ptr @H5_libterm_g, align 1
  %7 = trunc i8 %6 to i1
  %8 = select i1 %5, i1 true, i1 %7
  br i1 %8, label %16, label %9

9:                                                ; preds = %3
  %10 = tail call i32 @H5_init_library() #6
  %11 = icmp slt i32 %10, 0
  br i1 %11, label %12, label %16

12:                                               ; preds = %9
  %13 = load i64, ptr @H5E_FUNC_g, align 8
  %14 = load i64, ptr @H5E_CANTINIT_g, align 8
  %15 = tail call i32 (ptr, ptr, i32, i64, i64, ptr, ...) @H5E_printf_stack(ptr noundef nonnull @.str.1, ptr noundef nonnull @__func__.H5Pget_shared_mesg_phase_change, i32 noundef 1149, i64 noundef %13, i64 noundef %14, ptr noundef nonnull @.str.2) #6
  br label %.thread28

16:                                               ; preds = %9, %3
  %17 = tail call i32 @H5CX_push() #6
  %18 = icmp slt i32 %17, 0
  br i1 %18, label %19, label %23

19:                                               ; preds = %16
  %20 = load i64, ptr @H5E_FUNC_g, align 8
  %21 = load i64, ptr @H5E_CANTSET_g, align 8
  %22 = tail call i32 (ptr, ptr, i32, i64, i64, ptr, ...) @H5E_printf_stack(ptr noundef nonnull @.str.1, ptr noundef nonnull @__func__.H5Pget_shared_mesg_phase_change, i32 noundef 1149, i64 noundef %20, i64 noundef %21, ptr noundef nonnull @.str.3) #6
  br label %.thread28

23:                                               ; preds = %16
  %24 = tail call i32 @H5E_clear_stack() #6
  %25 = load i64, ptr @H5P_CLS_FILE_CREATE_ID_g, align 8
  %26 = tail call ptr @H5P_object_verify(i64 noundef %0, i64 noundef %25) #6
  %27 = icmp eq ptr %26, null
  br i1 %27, label %28, label %32

28:                                               ; preds = %23
  %29 = load i64, ptr @H5E_ID_g, align 8
  %30 = load i64, ptr @H5E_BADID_g, align 8
  %31 = tail call i32 (ptr, ptr, i32, i64, i64, ptr, ...) @H5E_printf_stack(ptr noundef nonnull @.str.1, ptr noundef nonnull @__func__.H5Pget_shared_mesg_phase_change, i32 noundef 1153, i64 noundef %29, i64 noundef %30, ptr noundef nonnull @.str.6) #6
  br label %.thread34

32:                                               ; preds = %23
  %.not = icmp eq ptr %1, null
  br i1 %.not, label %40, label %33

33:                                               ; preds = %32
  %34 = tail call i32 @H5P_get(ptr noundef nonnull %26, ptr noundef nonnull @.str.44, ptr noundef nonnull %1) #6
  %35 = icmp slt i32 %34, 0
  br i1 %35, label %36, label %40

36:                                               ; preds = %33
  %37 = load i64, ptr @H5E_PLIST_g, align 8
  %38 = load i64, ptr @H5E_CANTGET_g, align 8
  %39 = tail call i32 (ptr, ptr, i32, i64, i64, ptr, ...) @H5E_printf_stack(ptr noundef nonnull @.str.1, ptr noundef nonnull @__func__.H5Pget_shared_mesg_phase_change, i32 noundef 1158, i64 noundef %37, i64 noundef %38, ptr noundef nonnull @.str.48) #6
  br label %.thread34

40:                                               ; preds = %33, %32
  %.not19 = icmp eq ptr %2, null
  br i1 %.not19, label %49, label %41

41:                                               ; preds = %40
  %42 = tail call i32 @H5P_get(ptr noundef nonnull %26, ptr noundef nonnull @.str.46, ptr noundef nonnull %2) #6
  %43 = icmp slt i32 %42, 0
  br i1 %43, label %44, label %49

44:                                               ; preds = %41
  %45 = load i64, ptr @H5E_PLIST_g, align 8
  %46 = load i64, ptr @H5E_CANTGET_g, align 8
  %47 = tail call i32 (ptr, ptr, i32, i64, i64, ptr, ...) @H5E_printf_stack(ptr noundef nonnull @.str.1, ptr noundef nonnull @__func__.H5Pget_shared_mesg_phase_change, i32 noundef 1161, i64 noundef %45, i64 noundef %46, ptr noundef nonnull @.str.49) #6
  br label %.thread34

.thread34:                                        ; preds = %44, %36, %28
  %48 = tail call i32 @H5CX_pop(i1 noundef zeroext true) #6
  br label %.thread28

49:                                               ; preds = %40, %41
  %50 = tail call i32 @H5CX_pop(i1 noundef zeroext true) #6
  br label %52

.thread28:                                        ; preds = %19, %12, %.thread34
  %51 = tail call i32 @H5E_dump_api_stack() #6
  br label %52

52:                                               ; preds = %49, %.thread28
  %.0152331 = phi i32 [ -1, %.thread28 ], [ 0, %49 ]
  ret i32 %.0152331
}